target datalayout = "e-m:e-p270:32:32-p271:32:32-p272:64:64-i64:64-i128:128-f80:128-n8:16:32:64-S128"
target triple = "x86_64-pc-linux-gnu"

%struct.dir_iterator_int = type { %struct.dir_iterator, i64, i64, ptr, i32 }
%struct.dir_iterator = type { %struct.strbuf, ptr, ptr, %struct.stat }
%struct.strbuf = type { i64, i64, ptr }
%struct.stat = type { i64, i64, i64, i32, i32, i32, i32, i64, i64, i64, i64, %struct.timespec, %struct.timespec, %struct.timespec, [3 x i64] }
%struct.timespec = type { i64, i64 }

@.str.6 = private unnamed_addr constant [27 x i8] c"size_t overflow: %lu * %lu\00", align 1

; Function Attrs: inlinehint nounwind uwtable
define internal i64 @st_mult(i64 noundef %0, i64 noundef %1) #3 {
  %3 = alloca i64, align 8
  %4 = alloca i64, align 8
  store i64 %0, ptr %3, align 8, !tbaa !46
  store i64 %1, ptr %4, align 8, !tbaa !46
  %5 = load i64, ptr %3, align 8, !tbaa !46
  %6 = icmp ne i64 %5, 0
  br i1 %6, label %7, label %15

7:                                                ; preds = %2
  %8 = load i64, ptr %4, align 8, !tbaa !46
  %9 = load i64, ptr %3, align 8, !tbaa !46
  %10 = udiv i64 -1, %9
  %11 = icmp ugt i64 %8, %10
  br i1 %11, label %12, label %15

12:                                               ; preds = %7
  %13 = load i64, ptr %3, align 8, !tbaa !46
  %14 = load i64, ptr %4, align 8, !tbaa !46
  call void (ptr, ...) @die(ptr noundef @.str.6, i64 noundef %13, i64 noundef %14) #10
  unreachable

15:                                               ; preds = %7, %2
  %16 = load i64, ptr %3, align 8, !tbaa !46
  %17 = load i64, ptr %4, align 8, !tbaa !46
  %18 = mul i64 %16, %17
  ret i64 %18
}

; Function Attrs: inlinehint nounwind uwtable
define internal void @strbuf_addstr(ptr noundef %0, ptr noundef %1) #3 {
  %3 = alloca ptr, align 8
  %4 = alloca ptr, align 8
  store ptr %0, ptr %3, align 8, !tbaa !44
  store ptr %1, ptr %4, align 8, !tbaa !35
  %5 = load ptr, ptr %3, align 8, !tbaa !44
  %6 = load ptr, ptr %4, align 8, !tbaa !35
  %7 = load ptr, ptr %4, align 8, !tbaa !35
  %8 = call i64 @strlen(ptr noundef %7) #11
  call void @strbuf_add(ptr noundef %5, ptr noundef %6, i64 noundef %8)
  ret void
}

; Function Attrs: nounwind uwtable
define dso_local ptr @dir_iterator_begin(ptr noundef %0, i32 noundef %1) #0 {
  %3 = alloca ptr, align 8
  %4 = alloca ptr, align 8
  %5 = alloca i32, align 4
  %6 = alloca ptr, align 8
  %7 = alloca ptr, align 8
  %8 = alloca i32, align 4
  %9 = alloca i32, align 4
  %10 = alloca i32, align 4
  store ptr %0, ptr %4, align 8, !tbaa !35
  store i32 %1, ptr %5, align 4, !tbaa !21
  call void @llvm.lifetime.start.p0(i64 8, ptr %6) #8
  %11 = call ptr @xcalloc(i64 noundef 1, i64 noundef 216)
  store ptr %11, ptr %6, align 8, !tbaa !9
  call void @llvm.lifetime.start.p0(i64 8, ptr %7) #8
  %12 = load ptr, ptr %6, align 8, !tbaa !9
  %13 = getelementptr inbounds nuw %struct.dir_iterator_int, ptr %12, i32 0, i32 0
  store ptr %13, ptr %7, align 8, !tbaa !4
  call void @llvm.lifetime.start.p0(i64 4, ptr %8) #8
  call void @llvm.lifetime.start.p0(i64 4, ptr %9) #8
  %14 = load ptr, ptr %6, align 8, !tbaa !9
  %15 = getelementptr inbounds nuw %struct.dir_iterator_int, ptr %14, i32 0, i32 0
  %16 = getelementptr inbounds nuw %struct.dir_iterator, ptr %15, i32 0, i32 0
  call void @strbuf_init(ptr noundef %16, i64 noundef 4096)
  %17 = load ptr, ptr %6, align 8, !tbaa !9
  %18 = getelementptr inbounds nuw %struct.dir_iterator_int, ptr %17, i32 0, i32 0
  %19 = getelementptr inbounds nuw %struct.dir_iterator, ptr %18, i32 0, i32 0
  %20 = load ptr, ptr %4, align 8, !tbaa !35
  call void @strbuf_addstr(ptr noundef %19, ptr noundef %20)
  br label %21

21:                                               ; preds = %2
  %22 = load ptr, ptr %6, align 8, !tbaa !9
  %23 = getelementptr inbounds nuw %struct.dir_iterator_int, ptr %22, i32 0, i32 2
  %24 = load i64, ptr %23, align 8, !tbaa !41
  %25 = icmp ugt i64 10, %24
  br i1 %25, label %26, label %57

26:                                               ; preds = %21
  %27 = load ptr, ptr %6, align 8, !tbaa !9
  %28 = getelementptr inbounds nuw %struct.dir_iterator_int, ptr %27, i32 0, i32 2
  %29 = load i64, ptr %28, align 8, !tbaa !41
  %30 = add i64 %29, 16
  %31 = mul i64 %30, 3
  %32 = udiv i64 %31, 2
  %33 = icmp ult i64 %32, 10
  br i1 %33, label %34, label %37

34:                                               ; preds = %26
  %35 = load ptr, ptr %6, align 8, !tbaa !9
  %36 = getelementptr inbounds nuw %struct.dir_iterator_int, ptr %35, i32 0, i32 2
  store i64 10, ptr %36, align 8, !tbaa !41
  br label %46

37:                                               ; preds = %26
  %38 = load ptr, ptr %6, align 8, !tbaa !9
  %39 = getelementptr inbounds nuw %struct.dir_iterator_int, ptr %38, i32 0, i32 2
  %40 = load i64, ptr %39, align 8, !tbaa !41
  %41 = add i64 %40, 16
  %42 = mul i64 %41, 3
  %43 = udiv i64 %42, 2
  %44 = load ptr, ptr %6, align 8, !tbaa !9
  %45 = getelementptr inbounds nuw %struct.dir_iterator_int, ptr %44, i32 0, i32 2
  store i64 %43, ptr %45, align 8, !tbaa !41
  br label %46

46:                                               ; preds = %37, %34
  %47 = load ptr, ptr %6, align 8, !tbaa !9
  %48 = getelementptr inbounds nuw %struct.dir_iterator_int, ptr %47, i32 0, i32 3
  %49 = load ptr, ptr %48, align 8, !tbaa !24
  %50 = load ptr, ptr %6, align 8, !tbaa !9
  %51 = getelementptr inbounds nuw %struct.dir_iterator_int, ptr %50, i32 0, i32 2
  %52 = load i64, ptr %51, align 8, !tbaa !41
  %53 = call i64 @st_mult(i64 noundef 64, i64 noundef %52)
  %54 = call ptr @xrealloc(ptr noundef %49, i64 noundef %53)
  %55 = load ptr, ptr %6, align 8, !tbaa !9
  %56 = getelementptr inbounds nuw %struct.dir_iterator_int, ptr %55, i32 0, i32 3
  store ptr %54, ptr %56, align 8, !tbaa !24
  br label %57

57:                                               ; preds = %46, %21
  br label %58

58:                                               ; preds = %57
  br label %59

59:                                               ; preds = %58
  %60 = load ptr, ptr %6, align 8, !tbaa !9
  %61 = getelementptr inbounds nuw %struct.dir_iterator_int, ptr %60, i32 0, i32 1
  store i64 0, ptr %61, align 8, !tbaa !23
  %62 = load i32, ptr %5, align 4, !tbaa !21
  %63 = load ptr, ptr %6, align 8, !tbaa !9
  %64 = getelementptr inbounds nuw %struct.dir_iterator_int, ptr %63, i32 0, i32 4
  store i32 %62, ptr %64, align 8, !tbaa !22
  %65 = load ptr, ptr %6, align 8, !tbaa !9
  %66 = getelementptr inbounds nuw %struct.dir_iterator_int, ptr %65, i32 0, i32 0
  %67 = getelementptr inbounds nuw %struct.dir_iterator, ptr %66, i32 0, i32 0
  %68 = getelementptr inbounds nuw %struct.strbuf, ptr %67, i32 0, i32 2
  %69 = load ptr, ptr %68, align 8, !tbaa !32
  %70 = load ptr, ptr %6, align 8, !tbaa !9
  %71 = getelementptr inbounds nuw %struct.dir_iterator_int, ptr %70, i32 0, i32 0
  %72 = getelementptr inbounds nuw %struct.dir_iterator, ptr %71, i32 0, i32 3
  %73 = call i32 @lstat64(ptr noundef %69, ptr noundef %72) #8
  store i32 %73, ptr %9, align 4, !tbaa !21
  %74 = load i32, ptr %9, align 4, !tbaa !21
  %75 = icmp slt i32 %74, 0
  br i1 %75, label %76, label %79

76:                                               ; preds = %59
  %77 = call ptr @__errno_location() #9
  %78 = load i32, ptr %77, align 4, !tbaa !21
  store i32 %78, ptr %8, align 4, !tbaa !21
  br label %90

79:                                               ; preds = %59
  %80 = load ptr, ptr %6, align 8, !tbaa !9
  %81 = getelementptr inbounds nuw %struct.dir_iterator_int, ptr %80, i32 0, i32 0
  %82 = getelementptr inbounds nuw %struct.dir_iterator, ptr %81, i32 0, i32 3
  %83 = getelementptr inbounds nuw %struct.stat, ptr %82, i32 0, i32 3
  %84 = load i32, ptr %83, align 8, !tbaa !11
  %85 = and i32 %84, 61440
  %86 = icmp eq i32 %85, 16384
  br i1 %86, label %88, label %87

87:                                               ; preds = %79
  store i32 20, ptr %8, align 4, !tbaa !21
  br label %90

88:                                               ; preds = %79
  %89 = load ptr, ptr %7, align 8, !tbaa !4
  store ptr %89, ptr %3, align 8
  store i32 1, ptr %10, align 4
  br label %95

90:                                               ; preds = %87, %76
  %91 = load ptr, ptr %7, align 8, !tbaa !4
  %92 = call i32 @dir_iterator_abort(ptr noundef %91)
  %93 = load i32, ptr %8, align 4, !tbaa !21
  %94 = call ptr @__errno_location() #9
  store i32 %93, ptr %94, align 4, !tbaa !21
  store ptr null, ptr %3, align 8
  store i32 1, ptr %10, align 4
  br label %95

95:                                               ; preds = %90, %88
  call void @llvm.lifetime.end.p0(i64 4, ptr %9) #8
  call void @llvm.lifetime.end.p0(i64 4, ptr %8) #8
  call void @llvm.lifetime.end.p0(i64 8, ptr %7) #8
  call void @llvm.lifetime.end.p0(i64 8, ptr %6) #8
  %96 = load ptr, ptr %3, align 8
  ret ptr %96
}