; Function Attrs: nounwind uwtable
define dso_local noundef ptr @dir_iterator_begin(ptr noundef %0, i32 noundef %1) local_unnamed_addr #0 {
  %3 = tail call ptr @xcalloc(i64 noundef 1, i64 noundef 216) #9
  tail call void @strbuf_init(ptr noundef %3, i64 noundef 4096) #9
  %4 = tail call i64 @strlen(ptr noundef nonnull dereferenceable(1) %0) #11
  tail call void @strbuf_add(ptr noundef %3, ptr noundef nonnull %0, i64 noundef %4) #9
  %5 = getelementptr inbounds nuw i8, ptr %3, i64 192
  %6 = load i64, ptr %5, align 8, !tbaa !18
  %7 = icmp ult i64 %6, 10
  br i1 %7, label %st_mult.exit, label %15

st_mult.exit:                                     ; preds = %2
  %8 = mul nuw nsw i64 %6, 3
  %9 = add nuw nsw i64 %8, 48
  %10 = lshr i64 %9, 1
  store i64 %10, ptr %5, align 8, !tbaa !18
  %11 = getelementptr inbounds nuw i8, ptr %3, i64 200
  %12 = load ptr, ptr %11, align 8, !tbaa !19
  %13 = shl nuw nsw i64 %10, 6
  %14 = tail call ptr @xrealloc(ptr noundef %12, i64 noundef %13) #9
  store ptr %14, ptr %11, align 8, !tbaa !19
  br label %15

15:                                               ; preds = %st_mult.exit, %2
  %16 = getelementptr inbounds nuw i8, ptr %3, i64 184
  store i64 0, ptr %16, align 8, !tbaa !17
  %17 = getelementptr inbounds nuw i8, ptr %3, i64 208
  store i32 %1, ptr %17, align 8, !tbaa !34
  %18 = getelementptr inbounds nuw i8, ptr %3, i64 16
  %19 = load ptr, ptr %18, align 8, !tbaa !20
  %20 = getelementptr inbounds nuw i8, ptr %3, i64 40
  %21 = tail call i32 @lstat64(ptr noundef %19, ptr noundef nonnull %20) #9
  %22 = icmp slt i32 %21, 0
  br i1 %22, label %23, label %26

23:                                               ; preds = %15
  %24 = tail call ptr @__errno_location() #10
  %25 = load i32, ptr %24, align 4, !tbaa !32
  br label %31

26:                                               ; preds = %15
  %27 = getelementptr inbounds nuw i8, ptr %3, i64 64
  %28 = load i32, ptr %27, align 8, !tbaa !4
  %29 = and i32 %28, 61440
  %30 = icmp eq i32 %29, 16384
  br i1 %30, label %34, label %31

31:                                               ; preds = %26, %23
  %.022 = phi i32 [ %25, %23 ], [ 20, %26 ]
  %32 = tail call i32 @dir_iterator_abort(ptr noundef nonnull %3)
  %33 = tail call ptr @__errno_location() #10
  store i32 %.022, ptr %33, align 4, !tbaa !32
  br label %34

34:                                               ; preds = %26, %31
  %.0 = phi ptr [ null, %31 ], [ %3, %26 ]
  ret ptr %.0
}